; Function Attrs: mustprogress nofree norecurse nosync nounwind willreturn memory(none) uwtable
define hidden ptr @lxb_ns_data_by_id(ptr nocapture noundef readnone %0, i64 noundef %1) local_unnamed_addr #3 {
  %3 = icmp ugt i64 %1, 7
  %4 = getelementptr inbounds [8 x %struct.lxb_ns_data_t], ptr @lxb_ns_res_data, i64 0, i64 %1
  %5 = icmp eq i64 %1, 8
  %6 = inttoptr i64 %1 to ptr
  %spec.select = select i1 %5, ptr null, ptr %6
  %.0 = select i1 %3, ptr %spec.select, ptr %4
  ret ptr %.0
}